target datalayout = "e-m:e-p270:32:32-p271:32:32-p272:64:64-i64:64-i128:128-f80:128-n8:16:32:64-S128"
target triple = "x86_64-pc-linux-gnu"

%struct._zval_struct = type { %union._zend_value, %union.anon.9, %union.anon.12 }
%union._zend_value = type { i64 }
%union.anon.9 = type { i32 }
%union.anon.12 = type { i32 }
%struct._zend_op_array = type { i8, [3 x i8], i32, ptr, ptr, ptr, i32, i32, ptr, ptr, ptr, ptr, i32, i32, i32, i32, ptr, ptr, ptr, ptr, ptr, i32, i32, ptr, ptr, ptr, i32, i32, i32, i32, ptr, ptr, [6 x ptr] }
%struct._zend_refcounted_h = type { i32, %union.anon.0 }
%union.anon.0 = type { i32 }
%struct._zend_fcall_info_cache = type { ptr, ptr, ptr, ptr, ptr }
%struct.xml_parser = type { ptr, ptr, %struct._zval_struct, ptr, %struct._zend_fcall_info_cache, %struct._zend_fcall_info_cache, %struct._zend_fcall_info_cache, %struct._zend_fcall_info_cache, %struct._zend_fcall_info_cache, %struct._zend_fcall_info_cache, %struct._zend_fcall_info_cache, %struct._zend_fcall_info_cache, %struct._zend_fcall_info_cache, %struct._zend_fcall_info_cache, %struct._zval_struct, %struct._zval_struct, i32, i32, i32, ptr, ptr, i8, i8, i8, i8, i8, ptr, %struct._zend_object }
%struct._zend_object = type { %struct._zend_refcounted_h, i32, ptr, ptr, ptr, [1 x %struct._zval_struct] }
%struct._zend_refcounted = type { %struct._zend_refcounted_h }
%struct._zend_string = type { %struct._zend_refcounted_h, i64, i64, [1 x i8] }
%struct.anon.13 = type { i8, [3 x i8], i32, ptr, ptr, ptr, i32, i32, ptr, ptr, ptr, ptr, i32 }

; Function Attrs: nounwind uwtable
define internal i32 @_xml_xmlcharlen(ptr noundef %0) #0 {
  %2 = alloca ptr, align 8
  %3 = alloca i32, align 4
  store ptr %0, ptr %2, align 8
  store i32 0, ptr %3, align 4
  br label %4

4:                                                ; preds = %8, %1
  %5 = load ptr, ptr %2, align 8
  %6 = load i8, ptr %5, align 1
  %7 = icmp ne i8 %6, 0
  br i1 %7, label %8, label %13

8:                                                ; preds = %4
  %9 = load i32, ptr %3, align 4
  %10 = add nsw i32 %9, 1
  store i32 %10, ptr %3, align 4
  %11 = load ptr, ptr %2, align 8
  %12 = getelementptr inbounds i8, ptr %11, i32 1
  store ptr %12, ptr %2, align 8
  br label %4

13:                                               ; preds = %4
  %14 = load i32, ptr %3, align 4
  ret i32 %14
}

; Function Attrs: nounwind uwtable
define internal void @_xml_xmlchar_zval(ptr noundef %0, i32 noundef %1, ptr noundef %2, ptr noundef %3) #0 {
  %5 = alloca i32, align 4
  %6 = alloca ptr, align 8
  %7 = alloca i32, align 4
  %8 = alloca ptr, align 8
  %9 = alloca ptr, align 8
  %10 = alloca ptr, align 8
  %11 = alloca ptr, align 8
  store ptr %0, ptr %6, align 8
  store i32 %1, ptr %7, align 4
  store ptr %2, ptr %8, align 8
  store ptr %3, ptr %9, align 8
  %12 = load ptr, ptr %6, align 8
  %13 = icmp eq ptr %12, null
  br i1 %13, label %14, label %19

14:                                               ; preds = %4
  br label %15

15:                                               ; preds = %14
  %16 = load ptr, ptr %9, align 8
  %17 = getelementptr inbounds %struct._zval_struct, ptr %16, i32 0, i32 1
  store i32 2, ptr %17, align 8
  br label %18

18:                                               ; preds = %15
  br label %47

19:                                               ; preds = %4
  %20 = load i32, ptr %7, align 4
  %21 = icmp eq i32 %20, 0
  br i1 %21, label %22, label %25

22:                                               ; preds = %19
  %23 = load ptr, ptr %6, align 8
  %24 = call i32 @_xml_xmlcharlen(ptr noundef %23)
  store i32 %24, ptr %7, align 4
  br label %25

25:                                               ; preds = %22, %19
  br label %26

26:                                               ; preds = %25
  %27 = load ptr, ptr %9, align 8
  store ptr %27, ptr %10, align 8
  %28 = load ptr, ptr %6, align 8
  %29 = load i32, ptr %7, align 4
  %30 = sext i32 %29 to i64
  %31 = load ptr, ptr %8, align 8
  %32 = call ptr @xml_utf8_decode(ptr noundef %28, i64 noundef %30, ptr noundef %31)
  store ptr %32, ptr %11, align 8
  %33 = load ptr, ptr %11, align 8
  %34 = load ptr, ptr %10, align 8
  %35 = getelementptr inbounds %struct._zval_struct, ptr %34, i32 0, i32 0
  store ptr %33, ptr %35, align 8
  %36 = load ptr, ptr %11, align 8
  %37 = getelementptr inbounds %struct._zend_string, ptr %36, i32 0, i32 0
  %38 = getelementptr inbounds %struct._zend_refcounted_h, ptr %37, i32 0, i32 1
  %39 = load i32, ptr %38, align 4
  store i32 %39, ptr %5, align 4
  %40 = load i32, ptr %5, align 4
  %41 = and i32 %40, 1008
  %42 = and i32 %41, 64
  %43 = icmp ne i32 %42, 0
  %44 = select i1 %43, i32 6, i32 262
  %45 = load ptr, ptr %10, align 8
  %46 = getelementptr inbounds %struct._zval_struct, ptr %45, i32 0, i32 1
  store i32 %44, ptr %46, align 8
  br label %47

47:                                               ; preds = %26, %18
  ret void
}

; Function Attrs: nounwind uwtable
define hidden void @_xml_defaultHandler(ptr noundef %0, ptr noundef %1, i32 noundef %2) #0 {
  %4 = alloca i32, align 4
  %5 = alloca ptr, align 8
  %6 = alloca i32, align 4
  %7 = alloca ptr, align 8
  %8 = alloca ptr, align 8
  %9 = alloca ptr, align 8
  %10 = alloca i32, align 4
  %11 = alloca ptr, align 8
  %12 = alloca ptr, align 8
  %13 = alloca ptr, align 8
  %14 = alloca ptr, align 8
  %15 = alloca ptr, align 8
  %16 = alloca ptr, align 8
  %17 = alloca i32, align 4
  %18 = alloca ptr, align 8
  %19 = alloca [2 x %struct._zval_struct], align 16
  %20 = alloca ptr, align 8
  %21 = alloca ptr, align 8
  %22 = alloca ptr, align 8
  %23 = alloca i32, align 4
  store ptr %0, ptr %15, align 8
  store ptr %1, ptr %16, align 8
  store i32 %2, ptr %17, align 4
  %24 = load ptr, ptr %15, align 8
  store ptr %24, ptr %18, align 8
  %25 = load ptr, ptr %18, align 8
  %26 = icmp ne ptr %25, null
  br i1 %26, label %27, label %33

27:                                               ; preds = %3
  %28 = load ptr, ptr %18, align 8
  %29 = getelementptr inbounds %struct.xml_parser, ptr %28, i32 0, i32 8
  %30 = getelementptr inbounds %struct._zend_fcall_info_cache, ptr %29, i32 0, i32 0
  %31 = load ptr, ptr %30, align 8
  %32 = icmp ne ptr %31, null
  br i1 %32, label %34, label %33

33:                                               ; preds = %27, %3
  br label %116

34:                                               ; preds = %27
  br label %35

35:                                               ; preds = %34
  %36 = getelementptr inbounds [2 x %struct._zval_struct], ptr %19, i64 0, i64 0
  store ptr %36, ptr %20, align 8
  %37 = load ptr, ptr %18, align 8
  %38 = getelementptr inbounds %struct.xml_parser, ptr %37, i32 0, i32 2
  store ptr %38, ptr %21, align 8
  %39 = load ptr, ptr %21, align 8
  %40 = getelementptr inbounds %struct._zval_struct, ptr %39, i32 0, i32 0
  %41 = load ptr, ptr %40, align 8
  store ptr %41, ptr %22, align 8
  %42 = load ptr, ptr %21, align 8
  %43 = getelementptr inbounds %struct._zval_struct, ptr %42, i32 0, i32 1
  %44 = load i32, ptr %43, align 8
  store i32 %44, ptr %23, align 4
  br label %45

45:                                               ; preds = %35
  %46 = load ptr, ptr %22, align 8
  %47 = load ptr, ptr %20, align 8
  %48 = getelementptr inbounds %struct._zval_struct, ptr %47, i32 0, i32 0
  store ptr %46, ptr %48, align 8
  %49 = load i32, ptr %23, align 4
  %50 = load ptr, ptr %20, align 8
  %51 = getelementptr inbounds %struct._zval_struct, ptr %50, i32 0, i32 1
  store i32 %49, ptr %51, align 8
  br label %52

52:                                               ; preds = %45
  %53 = load i32, ptr %23, align 4
  %54 = and i32 %53, 65280
  %55 = icmp ne i32 %54, 0
  br i1 %55, label %56, label %62

56:                                               ; preds = %52
  %57 = load ptr, ptr %22, align 8
  %58 = getelementptr inbounds %struct._zend_refcounted, ptr %57, i32 0, i32 0
  store ptr %58, ptr %14, align 8
  %59 = load ptr, ptr %14, align 8
  %60 = load i32, ptr %59, align 4
  %61 = add i32 %60, 1
  store i32 %61, ptr %59, align 4
  br label %62

62:                                               ; preds = %56, %52
  br label %63

63:                                               ; preds = %62
  %64 = load ptr, ptr %16, align 8
  %65 = load i32, ptr %17, align 4
  %66 = load ptr, ptr %18, align 8
  %67 = getelementptr inbounds %struct.xml_parser, ptr %66, i32 0, i32 1
  %68 = load ptr, ptr %67, align 8
  %69 = getelementptr inbounds [2 x %struct._zval_struct], ptr %19, i64 0, i64 1
  call void @_xml_xmlchar_zval(ptr noundef %64, i32 noundef %65, ptr noundef %68, ptr noundef %69)
  %70 = load ptr, ptr %18, align 8
  %71 = getelementptr inbounds %struct.xml_parser, ptr %70, i32 0, i32 8
  %72 = getelementptr inbounds [2 x %struct._zval_struct], ptr %19, i64 0, i64 0
  store ptr %71, ptr %8, align 8
  store ptr null, ptr %9, align 8
  store i32 2, ptr %10, align 4
  store ptr %72, ptr %11, align 8
  store ptr null, ptr %12, align 8
  %73 = load ptr, ptr %8, align 8
  %74 = load ptr, ptr %73, align 8
  store ptr %74, ptr %13, align 8
  %75 = load ptr, ptr %13, align 8
  %76 = getelementptr inbounds %struct.anon.13, ptr %75, i32 0, i32 2
  %77 = load i32, ptr %76, align 4
  %78 = and i32 %77, 262144
  %79 = icmp ne i32 %78, 0
  br i1 %79, label %80, label %102

80:                                               ; preds = %63
  %81 = call noalias ptr @_emalloc_256() #11
  store ptr %81, ptr %13, align 8
  %82 = load ptr, ptr %13, align 8
  %83 = load ptr, ptr %8, align 8
  %84 = load ptr, ptr %83, align 8
  call void @llvm.memcpy.p0.p0.i64(ptr align 8 %82, ptr align 8 %84, i64 240, i1 false)
  %85 = load ptr, ptr %13, align 8
  %86 = getelementptr inbounds %struct._zend_op_array, ptr %85, i32 0, i32 3
  %87 = load ptr, ptr %86, align 8
  store ptr %87, ptr %7, align 8
  %88 = load ptr, ptr %7, align 8
  %89 = getelementptr inbounds %struct._zend_refcounted_h, ptr %88, i32 0, i32 1
  %90 = load i32, ptr %89, align 4
  store i32 %90, ptr %4, align 4
  %91 = load i32, ptr %4, align 4
  %92 = and i32 %91, 1008
  %93 = and i32 %92, 64
  %94 = icmp ne i32 %93, 0
  br i1 %94, label %100, label %95

95:                                               ; preds = %80
  %96 = load ptr, ptr %7, align 8
  store ptr %96, ptr %5, align 8
  %97 = load ptr, ptr %5, align 8
  %98 = load i32, ptr %97, align 4
  %99 = add i32 %98, 1
  store i32 %99, ptr %97, align 4
  store i32 %99, ptr %6, align 4
  br label %101

100:                                              ; preds = %80
  store i32 1, ptr %6, align 4
  br label %101

101:                                              ; preds = %100, %95
  br label %102

102:                                              ; preds = %101, %63
  %103 = load ptr, ptr %13, align 8
  %104 = load ptr, ptr %8, align 8
  %105 = getelementptr inbounds %struct._zend_fcall_info_cache, ptr %104, i32 0, i32 3
  %106 = load ptr, ptr %105, align 8
  %107 = load ptr, ptr %8, align 8
  %108 = getelementptr inbounds %struct._zend_fcall_info_cache, ptr %107, i32 0, i32 2
  %109 = load ptr, ptr %108, align 8
  %110 = load ptr, ptr %9, align 8
  %111 = load i32, ptr %10, align 4
  %112 = load ptr, ptr %11, align 8
  %113 = load ptr, ptr %12, align 8
  call void @zend_call_known_function(ptr noundef %103, ptr noundef %106, ptr noundef %109, ptr noundef %110, i32 noundef %111, ptr noundef %112, ptr noundef %113) #11
  %114 = getelementptr inbounds [2 x %struct._zval_struct], ptr %19, i64 0, i64 0
  call void @zval_ptr_dtor(ptr noundef %114)
  %115 = getelementptr inbounds [2 x %struct._zval_struct], ptr %19, i64 0, i64 1
  call void @zval_ptr_dtor(ptr noundef %115)
  br label %116

116:                                              ; preds = %102, %33
  ret void
}