; Function Attrs: nounwind uwtable
define hidden void @_xml_defaultHandler(ptr noundef readonly %0, ptr noundef %1, i32 noundef %2) #0 {
  %4 = alloca [2 x %struct._zval_struct], align 16
  %.not = icmp eq ptr %0, null
  br i1 %.not, label %57, label %5

5:                                                ; preds = %3
  %6 = getelementptr inbounds i8, ptr %0, i64 200
  %7 = load ptr, ptr %6, align 8
  %.not33 = icmp eq ptr %7, null
  br i1 %.not33, label %57, label %8

8:                                                ; preds = %5
  %9 = getelementptr inbounds i8, ptr %0, i64 16
  %10 = load ptr, ptr %9, align 8
  %11 = getelementptr inbounds i8, ptr %0, i64 24
  %12 = load i32, ptr %11, align 8
  store ptr %10, ptr %4, align 16
  %13 = getelementptr inbounds i8, ptr %4, i64 8
  store i32 %12, ptr %13, align 8
  %14 = and i32 %12, 65280
  %.not34 = icmp eq i32 %14, 0
  br i1 %.not34, label %18, label %15

15:                                               ; preds = %8
  %16 = load i32, ptr %10, align 4
  %17 = add i32 %16, 1
  store i32 %17, ptr %10, align 4
  br label %18

18:                                               ; preds = %8, %15
  %19 = getelementptr inbounds i8, ptr %0, i64 8
  %20 = load ptr, ptr %19, align 8
  %21 = getelementptr inbounds i8, ptr %4, i64 16
  %22 = icmp eq ptr %1, null
  br i1 %22, label %_xml_xmlchar_zval.exit, label %23

23:                                               ; preds = %18
  %24 = icmp eq i32 %2, 0
  br i1 %24, label %25, label %_xml_xmlcharlen.exit.i

25:                                               ; preds = %23
  %26 = load i8, ptr %1, align 1
  %.not4.i.i = icmp eq i8 %26, 0
  br i1 %.not4.i.i, label %_xml_xmlcharlen.exit.i, label %.lr.ph.i.i

.lr.ph.i.i:                                       ; preds = %25, %.lr.ph.i.i
  %.06.i.i = phi i32 [ %27, %.lr.ph.i.i ], [ 0, %25 ]
  %.035.i.i = phi ptr [ %28, %.lr.ph.i.i ], [ %1, %25 ]
  %27 = add nuw nsw i32 %.06.i.i, 1
  %28 = getelementptr inbounds i8, ptr %.035.i.i, i64 1
  %29 = load i8, ptr %28, align 1
  %.not.i.i = icmp eq i8 %29, 0
  br i1 %.not.i.i, label %_xml_xmlcharlen.exit.i, label %.lr.ph.i.i

_xml_xmlcharlen.exit.i:                           ; preds = %.lr.ph.i.i, %25, %23
  %.0.i = phi i32 [ %2, %23 ], [ 0, %25 ], [ %27, %.lr.ph.i.i ]
  %30 = sext i32 %.0.i to i64
  %31 = tail call fastcc ptr @xml_utf8_decode(ptr noundef nonnull %1, i64 noundef %30, ptr noundef %20)
  store ptr %31, ptr %21, align 16
  %32 = getelementptr inbounds i8, ptr %31, i64 4
  %33 = load i32, ptr %32, align 4
  %34 = and i32 %33, 64
  %.not.i = icmp eq i32 %34, 0
  %35 = select i1 %.not.i, i32 262, i32 6
  br label %_xml_xmlchar_zval.exit

_xml_xmlchar_zval.exit:                           ; preds = %18, %_xml_xmlcharlen.exit.i
  %.sink.i = phi i32 [ %35, %_xml_xmlcharlen.exit.i ], [ 2, %18 ]
  %36 = getelementptr inbounds i8, ptr %4, i64 24
  store i32 %.sink.i, ptr %36, align 8
  %37 = load ptr, ptr %6, align 8
  %38 = getelementptr inbounds i8, ptr %37, i64 4
  %39 = load i32, ptr %38, align 4
  %40 = and i32 %39, 262144
  %.not35 = icmp eq i32 %40, 0
  br i1 %.not35, label %52, label %41

41:                                               ; preds = %_xml_xmlchar_zval.exit
  %42 = tail call noalias ptr @_emalloc_256() #16
  %43 = load ptr, ptr %6, align 8
  tail call void @llvm.memcpy.p0.p0.i64(ptr noundef nonnull align 8 dereferenceable(240) %42, ptr noundef nonnull align 8 dereferenceable(240) %43, i64 240, i1 false)
  %44 = getelementptr inbounds i8, ptr %42, i64 8
  %45 = load ptr, ptr %44, align 8
  %46 = getelementptr inbounds i8, ptr %45, i64 4
  %47 = load i32, ptr %46, align 4
  %48 = and i32 %47, 64
  %.not36 = icmp eq i32 %48, 0
  br i1 %.not36, label %49, label %52

49:                                               ; preds = %41
  %50 = load i32, ptr %45, align 4
  %51 = add i32 %50, 1
  store i32 %51, ptr %45, align 4
  br label %52

52:                                               ; preds = %41, %49, %_xml_xmlchar_zval.exit
  %.0 = phi ptr [ %42, %49 ], [ %37, %_xml_xmlchar_zval.exit ], [ %42, %41 ]
  %53 = getelementptr inbounds i8, ptr %0, i64 224
  %54 = load ptr, ptr %53, align 8
  %55 = getelementptr inbounds i8, ptr %0, i64 216
  %56 = load ptr, ptr %55, align 8
  call void @zend_call_known_function(ptr noundef nonnull %.0, ptr noundef %54, ptr noundef %56, ptr noundef null, i32 noundef 2, ptr noundef nonnull %4, ptr noundef null) #16
  call void @zval_ptr_dtor(ptr noundef nonnull %4) #16
  call void @zval_ptr_dtor(ptr noundef nonnull %21) #16
  br label %57

57:                                               ; preds = %3, %5, %52
  ret void
}